target datalayout = "e-m:e-p270:32:32-p271:32:32-p272:64:64-i64:64-i128:128-f80:128-n8:16:32:64-S128"
target triple = "x86_64-pc-linux-gnu"

%struct.SDL_AtomicInt = type { i32 }
%struct.SDL_MouseWheelEvent = type { i32, i32, i64, i32, i32, float, float, i32, float, float, i32, i32 }
%struct.anon = type { ptr, i8, %struct.SDL_AtomicInt, i32, ptr, ptr, ptr }
%struct.SDL_EventEntry = type { %union.SDL_Event, ptr, ptr, ptr }
%union.SDL_Event = type { %struct.SDL_MouseWheelEvent, [72 x i8] }
%struct.SDL_DisabledEventBlock = type { [8 x i32] }

@SDL_disabled_events = internal global [256 x ptr] zeroinitializer, align 16
@SDL_EventQ = internal global { ptr, i8, [3 x i8], %struct.SDL_AtomicInt, i32, [4 x i8], ptr, ptr, ptr } zeroinitializer, align 8

; Function Attrs: nounwind uwtable
define hidden void @SDL_FlushEvents_REAL(i32 noundef %0, i32 noundef %1) #0 {
  %3 = alloca i32, align 4
  %4 = alloca i32, align 4
  %5 = alloca ptr, align 8
  %6 = alloca ptr, align 8
  %7 = alloca i32, align 4
  %8 = alloca i32, align 4
  store i32 %0, ptr %3, align 4
  store i32 %1, ptr %4, align 4
  call void @llvm.lifetime.start.p0(i64 8, ptr %5) #5
  call void @llvm.lifetime.start.p0(i64 8, ptr %6) #5
  call void @llvm.lifetime.start.p0(i64 4, ptr %7) #5
  %9 = load ptr, ptr @SDL_EventQ, align 8
  call void @SDL_LockMutex_REAL(ptr noundef %9)
  %10 = load i8, ptr getelementptr inbounds nuw (%struct.anon, ptr @SDL_EventQ, i32 0, i32 1), align 8, !range !3, !noundef !4
  %11 = trunc i8 %10 to i1
  br i1 %11, label %14, label %12

12:                                               ; preds = %2
  %13 = load ptr, ptr @SDL_EventQ, align 8
  call void @SDL_UnlockMutex_REAL(ptr noundef %13)
  store i32 1, ptr %8, align 4
  br label %40

14:                                               ; preds = %2
  %15 = load ptr, ptr getelementptr inbounds nuw (%struct.anon, ptr @SDL_EventQ, i32 0, i32 4), align 8
  store ptr %15, ptr %5, align 8
  br label %16

16:                                               ; preds = %36, %14
  %17 = load ptr, ptr %5, align 8
  %18 = icmp ne ptr %17, null
  br i1 %18, label %19, label %38

19:                                               ; preds = %16
  %20 = load ptr, ptr %5, align 8
  %21 = getelementptr inbounds nuw %struct.SDL_EventEntry, ptr %20, i32 0, i32 3
  %22 = load ptr, ptr %21, align 8
  store ptr %22, ptr %6, align 8
  %23 = load ptr, ptr %5, align 8
  %24 = getelementptr inbounds nuw %struct.SDL_EventEntry, ptr %23, i32 0, i32 0
  %25 = load i32, ptr %24, align 8
  store i32 %25, ptr %7, align 4
  %26 = load i32, ptr %3, align 4
  %27 = load i32, ptr %7, align 4
  %28 = icmp ule i32 %26, %27
  br i1 %28, label %29, label %35

29:                                               ; preds = %19
  %30 = load i32, ptr %7, align 4
  %31 = load i32, ptr %4, align 4
  %32 = icmp ule i32 %30, %31
  br i1 %32, label %33, label %35

33:                                               ; preds = %29
  %34 = load ptr, ptr %5, align 8
  call void @SDL_CutEvent(ptr noundef %34)
  br label %35

35:                                               ; preds = %33, %29, %19
  br label %36

36:                                               ; preds = %35
  %37 = load ptr, ptr %6, align 8
  store ptr %37, ptr %5, align 8
  br label %16, !llvm.loop !15

38:                                               ; preds = %16
  %39 = load ptr, ptr @SDL_EventQ, align 8
  call void @SDL_UnlockMutex_REAL(ptr noundef %39)
  store i32 0, ptr %8, align 4
  br label %40

40:                                               ; preds = %38, %12
  call void @llvm.lifetime.end.p0(i64 4, ptr %7) #5
  call void @llvm.lifetime.end.p0(i64 8, ptr %6) #5
  call void @llvm.lifetime.end.p0(i64 8, ptr %5) #5
  %41 = load i32, ptr %8, align 4
  switch i32 %41, label %43 [
    i32 0, label %42
    i32 1, label %42
  ]

42:                                               ; preds = %40, %40
  ret void

43:                                               ; preds = %40
  unreachable
}

; Function Attrs: nounwind uwtable
define hidden void @SDL_FlushEvent_REAL(i32 noundef %0) #0 {
  %2 = alloca i32, align 4
  store i32 %0, ptr %2, align 4
  %3 = load i32, ptr %2, align 4
  %4 = load i32, ptr %2, align 4
  call void @SDL_FlushEvents_REAL(i32 noundef %3, i32 noundef %4)
  ret void
}

; Function Attrs: nounwind uwtable
define hidden void @SDL_SetEventEnabled_REAL(i32 noundef %0, i1 noundef zeroext %1) #0 {
  %3 = alloca i32, align 4
  %4 = alloca i8, align 1
  %5 = alloca i8, align 1
  %6 = alloca i8, align 1
  %7 = alloca i8, align 1
  store i32 %0, ptr %3, align 4
  %8 = zext i1 %1 to i8
  store i8 %8, ptr %4, align 1
  call void @llvm.lifetime.start.p0(i64 1, ptr %5) #5
  call void @llvm.lifetime.start.p0(i64 1, ptr %6) #5
  %9 = load i32, ptr %3, align 4
  %10 = lshr i32 %9, 8
  %11 = and i32 %10, 255
  %12 = trunc i32 %11 to i8
  store i8 %12, ptr %6, align 1
  call void @llvm.lifetime.start.p0(i64 1, ptr %7) #5
  %13 = load i32, ptr %3, align 4
  %14 = and i32 %13, 255
  %15 = trunc i32 %14 to i8
  store i8 %15, ptr %7, align 1
  %16 = load i8, ptr %6, align 1
  %17 = zext i8 %16 to i64
  %18 = getelementptr inbounds nuw [256 x ptr], ptr @SDL_disabled_events, i64 0, i64 %17
  %19 = load ptr, ptr %18, align 8
  %20 = icmp ne ptr %19, null
  br i1 %20, label %21, label %40

21:                                               ; preds = %2
  %22 = load i8, ptr %6, align 1
  %23 = zext i8 %22 to i64
  %24 = getelementptr inbounds nuw [256 x ptr], ptr @SDL_disabled_events, i64 0, i64 %23
  %25 = load ptr, ptr %24, align 8
  %26 = getelementptr inbounds nuw %struct.SDL_DisabledEventBlock, ptr %25, i32 0, i32 0
  %27 = load i8, ptr %7, align 1
  %28 = zext i8 %27 to i32
  %29 = sdiv i32 %28, 32
  %30 = sext i32 %29 to i64
  %31 = getelementptr inbounds [8 x i32], ptr %26, i64 0, i64 %30
  %32 = load i32, ptr %31, align 4
  %33 = load i8, ptr %7, align 1
  %34 = zext i8 %33 to i32
  %35 = and i32 %34, 31
  %36 = shl i32 1, %35
  %37 = and i32 %32, %36
  %38 = icmp ne i32 %37, 0
  br i1 %38, label %39, label %40

39:                                               ; preds = %21
  store i8 0, ptr %5, align 1
  br label %41

40:                                               ; preds = %21, %2
  store i8 1, ptr %5, align 1
  br label %41

41:                                               ; preds = %40, %39
  %42 = load i8, ptr %4, align 1, !range !3, !noundef !4
  %43 = trunc i8 %42 to i1
  %44 = zext i1 %43 to i32
  %45 = icmp ne i32 %44, 0
  %46 = zext i1 %45 to i32
  %47 = load i8, ptr %5, align 1, !range !3, !noundef !4
  %48 = trunc i8 %47 to i1
  %49 = zext i1 %48 to i32
  %50 = icmp ne i32 %46, %49
  br i1 %50, label %51, label %126

51:                                               ; preds = %41
  %52 = load i8, ptr %4, align 1, !range !3, !noundef !4
  %53 = trunc i8 %52 to i1
  br i1 %53, label %54, label %82

54:                                               ; preds = %51
  br label %55

55:                                               ; preds = %54
  br label %56

56:                                               ; preds = %55
  br label %57

57:                                               ; preds = %56
  %58 = load i8, ptr %7, align 1
  %59 = zext i8 %58 to i32
  %60 = and i32 %59, 31
  %61 = shl i32 1, %60
  %62 = xor i32 %61, -1
  %63 = load i8, ptr %6, align 1
  %64 = zext i8 %63 to i64
  %65 = getelementptr inbounds nuw [256 x ptr], ptr @SDL_disabled_events, i64 0, i64 %64
  %66 = load ptr, ptr %65, align 8
  %67 = getelementptr inbounds nuw %struct.SDL_DisabledEventBlock, ptr %66, i32 0, i32 0
  %68 = load i8, ptr %7, align 1
  %69 = zext i8 %68 to i32
  %70 = sdiv i32 %69, 32
  %71 = sext i32 %70 to i64
  %72 = getelementptr inbounds [8 x i32], ptr %67, i64 0, i64 %71
  %73 = load i32, ptr %72, align 4
  %74 = and i32 %73, %62
  store i32 %74, ptr %72, align 4
  %75 = load i32, ptr %3, align 4
  switch i32 %75, label %80 [
    i32 1619, label %76
    i32 1620, label %77
    i32 1616, label %78
    i32 1617, label %78
    i32 1618, label %78
    i32 1626, label %79
  ]

76:                                               ; preds = %57
  call void @SDL_SetEventEnabled_REAL(i32 noundef 1541, i1 noundef zeroext true)
  br label %81

77:                                               ; preds = %57
  call void @SDL_SetEventEnabled_REAL(i32 noundef 1542, i1 noundef zeroext true)
  br label %81

78:                                               ; preds = %57, %57, %57
  call void @SDL_SetEventEnabled_REAL(i32 noundef 1536, i1 noundef zeroext true)
  call void @SDL_SetEventEnabled_REAL(i32 noundef 1538, i1 noundef zeroext true)
  call void @SDL_SetEventEnabled_REAL(i32 noundef 1539, i1 noundef zeroext true)
  call void @SDL_SetEventEnabled_REAL(i32 noundef 1540, i1 noundef zeroext true)
  br label %81

79:                                               ; preds = %57
  call void @SDL_SetEventEnabled_REAL(i32 noundef 1544, i1 noundef zeroext true)
  br label %81

80:                                               ; preds = %57
  br label %81

81:                                               ; preds = %80, %79, %78, %77, %76
  br label %118

82:                                               ; preds = %51
  %83 = load i8, ptr %6, align 1
  %84 = zext i8 %83 to i64
  %85 = getelementptr inbounds nuw [256 x ptr], ptr @SDL_disabled_events, i64 0, i64 %84
  %86 = load ptr, ptr %85, align 8
  %87 = icmp ne ptr %86, null
  br i1 %87, label %93, label %88

88:                                               ; preds = %82
  %89 = call noalias ptr @SDL_calloc_REAL(i64 noundef 1, i64 noundef 32) #6
  %90 = load i8, ptr %6, align 1
  %91 = zext i8 %90 to i64
  %92 = getelementptr inbounds nuw [256 x ptr], ptr @SDL_disabled_events, i64 0, i64 %91
  store ptr %89, ptr %92, align 8
  br label %93

93:                                               ; preds = %88, %82
  %94 = load i8, ptr %6, align 1
  %95 = zext i8 %94 to i64
  %96 = getelementptr inbounds nuw [256 x ptr], ptr @SDL_disabled_events, i64 0, i64 %95
  %97 = load ptr, ptr %96, align 8
  %98 = icmp ne ptr %97, null
  br i1 %98, label %99, label %117

99:                                               ; preds = %93
  %100 = load i8, ptr %7, align 1
  %101 = zext i8 %100 to i32
  %102 = and i32 %101, 31
  %103 = shl i32 1, %102
  %104 = load i8, ptr %6, align 1
  %105 = zext i8 %104 to i64
  %106 = getelementptr inbounds nuw [256 x ptr], ptr @SDL_disabled_events, i64 0, i64 %105
  %107 = load ptr, ptr %106, align 8
  %108 = getelementptr inbounds nuw %struct.SDL_DisabledEventBlock, ptr %107, i32 0, i32 0
  %109 = load i8, ptr %7, align 1
  %110 = zext i8 %109 to i32
  %111 = sdiv i32 %110, 32
  %112 = sext i32 %111 to i64
  %113 = getelementptr inbounds [8 x i32], ptr %108, i64 0, i64 %112
  %114 = load i32, ptr %113, align 4
  %115 = or i32 %114, %103
  store i32 %115, ptr %113, align 4
  %116 = load i32, ptr %3, align 4
  call void @SDL_FlushEvent_REAL(i32 noundef %116)
  br label %117

117:                                              ; preds = %99, %93
  br label %118

118:                                              ; preds = %117, %81
  %119 = load i32, ptr %3, align 4
  %120 = icmp eq i32 %119, 4096
  br i1 %120, label %124, label %121

121:                                              ; preds = %118
  %122 = load i32, ptr %3, align 4
  %123 = icmp eq i32 %122, 4097
  br i1 %123, label %124, label %125

124:                                              ; preds = %121, %118
  call void @SDL_ToggleDragAndDropSupport()
  br label %125

125:                                              ; preds = %124, %121
  br label %126

126:                                              ; preds = %125, %41
  call void @llvm.lifetime.end.p0(i64 1, ptr %7) #5
  call void @llvm.lifetime.end.p0(i64 1, ptr %6) #5
  call void @llvm.lifetime.end.p0(i64 1, ptr %5) #5
  ret void
}