; Function Attrs: nounwind uwtable
define hidden void @SDL_SetEventEnabled_REAL(i32 noundef %0, i1 noundef zeroext %1) local_unnamed_addr #0 {
  %3 = lshr i32 %0, 8
  %4 = and i32 %3, 255
  %5 = zext nneg i32 %4 to i64
  %6 = getelementptr inbounds nuw [256 x ptr], ptr @SDL_disabled_events, i64 0, i64 %5
  %7 = load ptr, ptr %6, align 8
  %.not = icmp eq ptr %7, null
  br i1 %.not, label %17, label %8

8:                                                ; preds = %2
  %9 = lshr i32 %0, 5
  %10 = and i32 %9, 7
  %11 = zext nneg i32 %10 to i64
  %12 = getelementptr inbounds nuw [8 x i32], ptr %7, i64 0, i64 %11
  %13 = load i32, ptr %12, align 4
  %14 = and i32 %0, 31
  %15 = shl nuw i32 1, %14
  %16 = and i32 %13, %15
  %.not25 = icmp eq i32 %16, 0
  br i1 %.not25, label %17, label %18

17:                                               ; preds = %8, %2
  br label %18

18:                                               ; preds = %8, %17
  %.0 = phi i32 [ 1, %17 ], [ 0, %8 ]
  %19 = zext i1 %1 to i32
  %.not26 = icmp eq i32 %.0, %19
  br i1 %.not26, label %SDL_SetEventEnabled_REAL.exit.thread, label %20

20:                                               ; preds = %18
  br i1 %1, label %21, label %56

21:                                               ; preds = %20
  %22 = and i32 %0, 31
  %23 = shl nuw i32 1, %22
  %24 = xor i32 %23, -1
  %25 = lshr i32 %0, 5
  %26 = and i32 %25, 7
  %27 = zext nneg i32 %26 to i64
  %28 = getelementptr inbounds nuw [8 x i32], ptr %7, i64 0, i64 %27
  %29 = load i32, ptr %28, align 4
  %30 = and i32 %29, %24
  store i32 %30, ptr %28, align 4
  switch i32 %0, label %SDL_SetEventEnabled_REAL.exit [
    i32 1619, label %31
    i32 1620, label %38
    i32 1616, label %45
    i32 1617, label %45
    i32 1618, label %45
    i32 1626, label %49
  ]

31:                                               ; preds = %21
  %32 = load ptr, ptr getelementptr inbounds nuw (i8, ptr @SDL_disabled_events, i64 48), align 16
  %.not.i = icmp eq ptr %32, null
  br i1 %.not.i, label %SDL_SetEventEnabled_REAL.exit.thread, label %33

33:                                               ; preds = %31
  %34 = load i32, ptr %32, align 4
  %35 = and i32 %34, 32
  %.not25.i = icmp eq i32 %35, 0
  br i1 %.not25.i, label %SDL_SetEventEnabled_REAL.exit.thread, label %36

36:                                               ; preds = %33
  %37 = and i32 %34, -33
  store i32 %37, ptr %32, align 4
  br label %SDL_SetEventEnabled_REAL.exit.thread

38:                                               ; preds = %21
  %39 = load ptr, ptr getelementptr inbounds nuw (i8, ptr @SDL_disabled_events, i64 48), align 16
  %.not.i29 = icmp eq ptr %39, null
  br i1 %.not.i29, label %SDL_SetEventEnabled_REAL.exit.thread, label %40

40:                                               ; preds = %38
  %41 = load i32, ptr %39, align 4
  %42 = and i32 %41, 64
  %.not25.i30 = icmp eq i32 %42, 0
  br i1 %.not25.i30, label %SDL_SetEventEnabled_REAL.exit.thread, label %43

43:                                               ; preds = %40
  %44 = and i32 %41, -65
  store i32 %44, ptr %39, align 4
  br label %SDL_SetEventEnabled_REAL.exit.thread

45:                                               ; preds = %21, %21, %21
  %46 = load ptr, ptr getelementptr inbounds nuw (i8, ptr @SDL_disabled_events, i64 48), align 16
  %.not.i34 = icmp eq ptr %46, null
  br i1 %.not.i34, label %SDL_SetEventEnabled_REAL.exit, label %SDL_SetEventEnabled_REAL.exit38

SDL_SetEventEnabled_REAL.exit38:                  ; preds = %45
  %47 = load i32, ptr %46, align 4
  %48 = and i32 %47, 29
  %.not87 = icmp eq i32 %48, 0
  br i1 %.not87, label %SDL_SetEventEnabled_REAL.exit, label %77

49:                                               ; preds = %21
  %50 = load ptr, ptr getelementptr inbounds nuw (i8, ptr @SDL_disabled_events, i64 48), align 16
  %.not.i54 = icmp eq ptr %50, null
  br i1 %.not.i54, label %SDL_SetEventEnabled_REAL.exit.thread, label %51

51:                                               ; preds = %49
  %52 = load i32, ptr %50, align 4
  %53 = and i32 %52, 256
  %.not25.i55 = icmp eq i32 %53, 0
  br i1 %.not25.i55, label %SDL_SetEventEnabled_REAL.exit.thread, label %54

54:                                               ; preds = %51
  %55 = and i32 %52, -257
  store i32 %55, ptr %50, align 4
  br label %SDL_SetEventEnabled_REAL.exit.thread

56:                                               ; preds = %20
  br i1 %.not, label %thread-pre-split, label %thread-pre-split.thread

thread-pre-split:                                 ; preds = %56
  %57 = tail call noalias dereferenceable_or_null(32) ptr @SDL_calloc_REAL(i64 noundef 1, i64 noundef 32) #9
  store ptr %57, ptr %6, align 8
  %.not28 = icmp eq ptr %57, null
  br i1 %.not28, label %SDL_SetEventEnabled_REAL.exit, label %thread-pre-split.thread

thread-pre-split.thread:                          ; preds = %56, %thread-pre-split
  %58 = phi ptr [ %57, %thread-pre-split ], [ %7, %56 ]
  %59 = and i32 %0, 31
  %60 = shl nuw i32 1, %59
  %61 = lshr i32 %0, 5
  %62 = and i32 %61, 7
  %63 = zext nneg i32 %62 to i64
  %64 = getelementptr inbounds nuw [8 x i32], ptr %58, i64 0, i64 %63
  %65 = load i32, ptr %64, align 4
  %66 = or i32 %65, %60
  store i32 %66, ptr %64, align 4
  %67 = load ptr, ptr @SDL_EventQ, align 8
  tail call void @SDL_LockMutex_REAL(ptr noundef %67) #8
  %68 = load i8, ptr getelementptr inbounds nuw (i8, ptr @SDL_EventQ, i64 8), align 8, !range !6, !noundef !7
  %69 = trunc nuw i8 %68 to i1
  %70 = load ptr, ptr getelementptr inbounds nuw (i8, ptr @SDL_EventQ, i64 24), align 8
  %.not11.i.i = icmp ne ptr %70, null
  %or.cond14.not.i.i = select i1 %69, i1 %.not11.i.i, i1 false
  br i1 %or.cond14.not.i.i, label %.lr.ph.i.i, label %SDL_FlushEvent_REAL.exit

.lr.ph.i.i:                                       ; preds = %thread-pre-split.thread, %75
  %.012.i.i = phi ptr [ %72, %75 ], [ %70, %thread-pre-split.thread ]
  %71 = getelementptr inbounds nuw i8, ptr %.012.i.i, i64 144
  %72 = load ptr, ptr %71, align 8
  %73 = load i32, ptr %.012.i.i, align 8
  %or.cond.i.not.i = icmp eq i32 %73, %0
  br i1 %or.cond.i.not.i, label %74, label %75

74:                                               ; preds = %.lr.ph.i.i
  tail call fastcc void @SDL_CutEvent(ptr noundef %.012.i.i)
  br label %75

75:                                               ; preds = %74, %.lr.ph.i.i
  %.not.i.i = icmp eq ptr %72, null
  br i1 %.not.i.i, label %SDL_FlushEvent_REAL.exit, label %.lr.ph.i.i, !llvm.loop !15

SDL_FlushEvent_REAL.exit:                         ; preds = %75, %thread-pre-split.thread
  %76 = load ptr, ptr @SDL_EventQ, align 8
  tail call void @SDL_UnlockMutex_REAL(ptr noundef %76) #8
  br label %SDL_SetEventEnabled_REAL.exit

77:                                               ; preds = %SDL_SetEventEnabled_REAL.exit38
  %spec.select84 = and i32 %47, -30
  store i32 %spec.select84, ptr %46, align 4
  br label %SDL_SetEventEnabled_REAL.exit

SDL_SetEventEnabled_REAL.exit:                    ; preds = %77, %SDL_SetEventEnabled_REAL.exit38, %45, %thread-pre-split, %SDL_FlushEvent_REAL.exit, %21
  %78 = and i32 %0, -2
  %or.cond = icmp eq i32 %78, 4096
  br i1 %or.cond, label %79, label %SDL_SetEventEnabled_REAL.exit.thread

79:                                               ; preds = %SDL_SetEventEnabled_REAL.exit
  tail call void @SDL_ToggleDragAndDropSupport() #8
  br label %SDL_SetEventEnabled_REAL.exit.thread

SDL_SetEventEnabled_REAL.exit.thread:             ; preds = %51, %49, %40, %38, %33, %31, %36, %43, %54, %79, %SDL_SetEventEnabled_REAL.exit, %18
  ret void
}